; Function Attrs: mustprogress uwtable
define noundef i32 @ucol_getDisplayName_75(ptr noundef %objLoc, ptr noundef %dispLoc, ptr noundef %result, i32 noundef %resultLength, ptr noundef %status) local_unnamed_addr #1 personality ptr @__gxx_personality_v0 {
entry:
  %dst = alloca %"class.icu_75::UnicodeString", align 8
  %ref.tmp = alloca %"class.icu_75::Locale", align 8
  %ref.tmp6 = alloca %"class.icu_75::Locale", align 8
  %agg.tmp = alloca %"class.icu_75::Char16Ptr", align 8
  %0 = load i32, ptr %status, align 4
  %cmp.i = icmp slt i32 %0, 1
  br i1 %cmp.i, label %if.end, label %return

if.end:                                           ; preds = %entry
  store ptr getelementptr inbounds ({ [13 x ptr] }, ptr @_ZTVN6icu_7513UnicodeStringE, i64 0, i32 0, i64 2), ptr %dst, align 8
  %fUnion2.i = getelementptr inbounds i8, ptr %dst, i64 8
  store i16 2, ptr %fUnion2.i, align 8
  %cmp = icmp eq ptr %result, null
  %cmp1 = icmp eq i32 %resultLength, 0
  %or.cond = and i1 %cmp, %cmp1
  br i1 %or.cond, label %if.end4, label %if.then2

if.then2:                                         ; preds = %if.end
  %call3 = invoke noundef nonnull align 8 dereferenceable(64) ptr @_ZN6icu_7513UnicodeString5setToEPDsii(ptr noundef nonnull align 8 dereferenceable(64) %dst, ptr noundef %result, i32 noundef 0, i32 noundef %resultLength)
          to label %if.end4 unwind label %lpad

lpad:                                             ; preds = %if.end4, %if.then2
  %1 = landingpad { ptr, i32 }
          cleanup
  br label %ehcleanup17

if.end4:                                          ; preds = %if.then2, %if.end
  invoke void @_ZN6icu_756LocaleC1EPKcS2_S2_S2_(ptr noundef nonnull align 8 dereferenceable(217) %ref.tmp, ptr noundef %objLoc, ptr noundef null, ptr noundef null, ptr noundef null)
          to label %invoke.cont5 unwind label %lpad

invoke.cont5:                                     ; preds = %if.end4
  invoke void @_ZN6icu_756LocaleC1EPKcS2_S2_S2_(ptr noundef nonnull align 8 dereferenceable(217) %ref.tmp6, ptr noundef %dispLoc, ptr noundef null, ptr noundef null, ptr noundef null)
          to label %invoke.cont8 unwind label %lpad7

invoke.cont8:                                     ; preds = %invoke.cont5
  %call11 = invoke noundef nonnull align 8 dereferenceable(64) ptr @_ZN6icu_758Collator14getDisplayNameERKNS_6LocaleES3_RNS_13UnicodeStringE(ptr noundef nonnull align 8 dereferenceable(217) %ref.tmp, ptr noundef nonnull align 8 dereferenceable(217) %ref.tmp6, ptr noundef nonnull align 8 dereferenceable(64) %dst)
          to label %invoke.cont10 unwind label %lpad9

invoke.cont10:                                    ; preds = %invoke.cont8
  call void @_ZN6icu_756LocaleD1Ev(ptr noundef nonnull align 8 dereferenceable(217) %ref.tmp6) #13
  call void @_ZN6icu_756LocaleD1Ev(ptr noundef nonnull align 8 dereferenceable(217) %ref.tmp) #13
  store ptr %result, ptr %agg.tmp, align 8
  %call15 = invoke noundef i32 @_ZNK6icu_7513UnicodeString7extractENS_9Char16PtrEiR10UErrorCode(ptr noundef nonnull align 8 dereferenceable(64) %dst, ptr noundef nonnull %agg.tmp, i32 noundef %resultLength, ptr noundef nonnull align 4 dereferenceable(4) %status)
          to label %invoke.cont14 unwind label %lpad13

invoke.cont14:                                    ; preds = %invoke.cont10
  %2 = load ptr, ptr %agg.tmp, align 8
  call void asm sideeffect "", "rm,~{memory},~{dirflag},~{fpsr},~{flags}"(ptr %2) #13, !srcloc !5
  call void @_ZN6icu_7513UnicodeStringD1Ev(ptr noundef nonnull align 8 dereferenceable(64) %dst) #13
  br label %return

lpad7:                                            ; preds = %invoke.cont5
  %3 = landingpad { ptr, i32 }
          cleanup
  br label %ehcleanup

lpad9:                                            ; preds = %invoke.cont8
  %4 = landingpad { ptr, i32 }
          cleanup
  call void @_ZN6icu_756LocaleD1Ev(ptr noundef nonnull align 8 dereferenceable(217) %ref.tmp6) #13
  br label %ehcleanup

ehcleanup:                                        ; preds = %lpad9, %lpad7
  %.pn = phi { ptr, i32 } [ %4, %lpad9 ], [ %3, %lpad7 ]
  call void @_ZN6icu_756LocaleD1Ev(ptr noundef nonnull align 8 dereferenceable(217) %ref.tmp) #13
  br label %ehcleanup17

lpad13:                                           ; preds = %invoke.cont10
  %5 = landingpad { ptr, i32 }
          cleanup
  %6 = load ptr, ptr %agg.tmp, align 8
  call void asm sideeffect "", "rm,~{memory},~{dirflag},~{fpsr},~{flags}"(ptr %6) #13, !srcloc !5
  br label %ehcleanup17

ehcleanup17:                                      ; preds = %lpad13, %ehcleanup, %lpad
  %.pn7 = phi { ptr, i32 } [ %5, %lpad13 ], [ %.pn, %ehcleanup ], [ %1, %lpad ]
  call void @_ZN6icu_7513UnicodeStringD1Ev(ptr noundef nonnull align 8 dereferenceable(64) %dst) #13
  resume { ptr, i32 } %.pn7

return:                                           ; preds = %entry, %invoke.cont14
  %retval.0 = phi i32 [ %call15, %invoke.cont14 ], [ -1, %entry ]
  ret i32 %retval.0
}